target datalayout = "e-m:e-p270:32:32-p271:32:32-p272:64:64-i64:64-i128:128-f80:128-n8:16:32:64-S128"
target triple = "x86_64-pc-linux-gnu"

%"class.cv::utils::trace::details::Region" = type <{ ptr, i32, [4 x i8] }>
%"class.cv::Mat_" = type { %"class.cv::Mat" }
%"class.cv::Mat" = type { i32, i32, i32, i32, ptr, ptr, ptr, ptr, ptr, ptr, %"struct.cv::MatSize", %"struct.cv::MatStep" }
%"struct.cv::MatSize" = type { ptr }
%"struct.cv::MatStep" = type { ptr, [2 x i64] }
%"struct.cv::VariationalRefinementImpl::RedBlackBuffer" = type { %"class.cv::Mat_", %"class.cv::Mat_", i32, i32, i32, i32 }
%"class.cv::Size_" = type { i32, i32 }

; Function Attrs: inlinehint mustprogress uwtable
define linkonce_odr hidden void @_ZN2cv4Mat_IfE6createEii(ptr noundef nonnull align 8 dereferenceable(96) %0, i32 noundef %1, i32 noundef %2) #1 comdat align 2 {
  %4 = alloca ptr, align 8
  %5 = alloca i32, align 4
  %6 = alloca i32, align 4
  store ptr %0, ptr %4, align 8, !tbaa !36
  store i32 %1, ptr %5, align 4, !tbaa !49
  store i32 %2, ptr %6, align 4, !tbaa !49
  %7 = load ptr, ptr %4, align 8
  %8 = load i32, ptr %5, align 4, !tbaa !49
  %9 = load i32, ptr %6, align 4, !tbaa !49
  call void @_ZN2cv3Mat6createEiii(ptr noundef nonnull align 8 dereferenceable(96) %7, i32 noundef %8, i32 noundef %9, i32 noundef 5)
  ret void
}

; Function Attrs: mustprogress uwtable
define hidden void @_ZN2cv25VariationalRefinementImpl14RedBlackBuffer6createENS_5Size_IiEE(ptr noundef nonnull align 8 dereferenceable(208) %0, i64 %1) #0 align 2 personality ptr @__gxx_personality_v0 {
  %3 = alloca %"class.cv::Size_", align 4
  %4 = alloca ptr, align 8
  %5 = alloca %"class.cv::utils::trace::details::Region", align 8
  %6 = alloca i32, align 4
  %7 = alloca ptr, align 8
  %8 = alloca i32, align 4
  store i64 %1, ptr %3, align 4
  store ptr %0, ptr %4, align 8, !tbaa !44
  %9 = load ptr, ptr %4, align 8
  call void @llvm.lifetime.start.p0(i64 16, ptr %5) #18
  call void @_ZN2cv5utils5trace7details6RegionC1ERKNS3_21LocationStaticStorageE(ptr noundef nonnull align 8 dereferenceable(12) %5, ptr noundef nonnull align 8 dereferenceable(32) @_ZZN2cv25VariationalRefinementImpl14RedBlackBuffer6createENS_5Size_IiEEE25__cv_trace_location_fn396)
  call void @llvm.lifetime.start.p0(i64 4, ptr %6) #18
  %10 = getelementptr inbounds nuw %"class.cv::Size_", ptr %3, i32 0, i32 0
  %11 = load i32, ptr %10, align 4, !tbaa !70
  %12 = sitofp i32 %11 to double
  %13 = fdiv double %12, 2.000000e+00
  %14 = call double @llvm.ceil.f64(double %13)
  %15 = fptosi double %14 to i32
  %16 = add nsw i32 %15, 2
  store i32 %16, ptr %6, align 4, !tbaa !49
  %17 = getelementptr inbounds nuw %"struct.cv::VariationalRefinementImpl::RedBlackBuffer", ptr %9, i32 0, i32 0
  %18 = getelementptr inbounds nuw %"class.cv::Size_", ptr %3, i32 0, i32 1
  %19 = load i32, ptr %18, align 4, !tbaa !72
  %20 = add nsw i32 %19, 2
  %21 = load i32, ptr %6, align 4, !tbaa !49
  invoke void @_ZN2cv4Mat_IfE6createEii(ptr noundef nonnull align 8 dereferenceable(96) %17, i32 noundef %20, i32 noundef %21)
          to label %22 unwind label %40

22:                                               ; preds = %2
  %23 = getelementptr inbounds nuw %"struct.cv::VariationalRefinementImpl::RedBlackBuffer", ptr %9, i32 0, i32 1
  %24 = getelementptr inbounds nuw %"class.cv::Size_", ptr %3, i32 0, i32 1
  %25 = load i32, ptr %24, align 4, !tbaa !72
  %26 = add nsw i32 %25, 2
  %27 = load i32, ptr %6, align 4, !tbaa !49
  invoke void @_ZN2cv4Mat_IfE6createEii(ptr noundef nonnull align 8 dereferenceable(96) %23, i32 noundef %26, i32 noundef %27)
          to label %28 unwind label %40

28:                                               ; preds = %22
  %29 = getelementptr inbounds nuw %"class.cv::Size_", ptr %3, i32 0, i32 0
  %30 = load i32, ptr %29, align 4, !tbaa !70
  %31 = srem i32 %30, 2
  %32 = icmp eq i32 %31, 0
  br i1 %32, label %33, label %44

33:                                               ; preds = %28
  %34 = load i32, ptr %6, align 4, !tbaa !49
  %35 = sub nsw i32 %34, 2
  %36 = getelementptr inbounds nuw %"struct.cv::VariationalRefinementImpl::RedBlackBuffer", ptr %9, i32 0, i32 5
  store i32 %35, ptr %36, align 4, !tbaa !68
  %37 = getelementptr inbounds nuw %"struct.cv::VariationalRefinementImpl::RedBlackBuffer", ptr %9, i32 0, i32 4
  store i32 %35, ptr %37, align 8, !tbaa !66
  %38 = getelementptr inbounds nuw %"struct.cv::VariationalRefinementImpl::RedBlackBuffer", ptr %9, i32 0, i32 3
  store i32 %35, ptr %38, align 4, !tbaa !67
  %39 = getelementptr inbounds nuw %"struct.cv::VariationalRefinementImpl::RedBlackBuffer", ptr %9, i32 0, i32 2
  store i32 %35, ptr %39, align 8, !tbaa !65
  br label %53

40:                                               ; preds = %22, %2
  %41 = landingpad { ptr, i32 }
          cleanup
  %42 = extractvalue { ptr, i32 } %41, 0
  store ptr %42, ptr %7, align 8
  %43 = extractvalue { ptr, i32 } %41, 1
  store i32 %43, ptr %8, align 4
  call void @llvm.lifetime.end.p0(i64 4, ptr %6) #18
  call void @_ZN2cv5utils5trace7details6RegionD2Ev(ptr noundef nonnull align 8 dereferenceable(12) %5) #18
  call void @llvm.lifetime.end.p0(i64 16, ptr %5) #18
  br label %54

44:                                               ; preds = %28
  %45 = load i32, ptr %6, align 4, !tbaa !49
  %46 = sub nsw i32 %45, 2
  %47 = getelementptr inbounds nuw %"struct.cv::VariationalRefinementImpl::RedBlackBuffer", ptr %9, i32 0, i32 5
  store i32 %46, ptr %47, align 4, !tbaa !68
  %48 = getelementptr inbounds nuw %"struct.cv::VariationalRefinementImpl::RedBlackBuffer", ptr %9, i32 0, i32 2
  store i32 %46, ptr %48, align 8, !tbaa !65
  %49 = load i32, ptr %6, align 4, !tbaa !49
  %50 = sub nsw i32 %49, 3
  %51 = getelementptr inbounds nuw %"struct.cv::VariationalRefinementImpl::RedBlackBuffer", ptr %9, i32 0, i32 4
  store i32 %50, ptr %51, align 8, !tbaa !66
  %52 = getelementptr inbounds nuw %"struct.cv::VariationalRefinementImpl::RedBlackBuffer", ptr %9, i32 0, i32 3
  store i32 %50, ptr %52, align 4, !tbaa !67
  br label %53

53:                                               ; preds = %44, %33
  call void @llvm.lifetime.end.p0(i64 4, ptr %6) #18
  call void @_ZN2cv5utils5trace7details6RegionD2Ev(ptr noundef nonnull align 8 dereferenceable(12) %5) #18
  call void @llvm.lifetime.end.p0(i64 16, ptr %5) #18
  ret void

54:                                               ; preds = %40
  %55 = load ptr, ptr %7, align 8
  %56 = load i32, ptr %8, align 4
  %57 = insertvalue { ptr, i32 } poison, ptr %55, 0
  %58 = insertvalue { ptr, i32 } %57, i32 %56, 1
  resume { ptr, i32 } %58
}