; Function Attrs: mustprogress uwtable
define hidden void @_ZN2cv25VariationalRefinementImpl14RedBlackBuffer6createENS_5Size_IiEE(ptr noundef nonnull align 8 dereferenceable(208) %0, i64 %1) local_unnamed_addr #0 align 2 personality ptr @__gxx_personality_v0 {
  %3 = alloca %"class.cv::utils::trace::details::Region", align 8
  %.sroa.0.0.extract.trunc = trunc i64 %1 to i32
  %.sroa.3.0.extract.shift = lshr i64 %1, 32
  %.sroa.3.0.extract.trunc = trunc nuw i64 %.sroa.3.0.extract.shift to i32
  call void @llvm.lifetime.start.p0(i64 16, ptr nonnull %3) #18
  call void @_ZN2cv5utils5trace7details6RegionC1ERKNS3_21LocationStaticStorageE(ptr noundef nonnull align 8 dereferenceable(12) %3, ptr noundef nonnull align 8 dereferenceable(32) @_ZZN2cv25VariationalRefinementImpl14RedBlackBuffer6createENS_5Size_IiEEE25__cv_trace_location_fn396)
  %4 = sitofp i32 %.sroa.0.0.extract.trunc to double
  %5 = fmul double %4, 5.000000e-01
  %6 = call double @llvm.ceil.f64(double %5)
  %7 = fptosi double %6 to i32
  %8 = add nsw i32 %7, 2
  %9 = add nsw i32 %.sroa.3.0.extract.trunc, 2
  invoke void @_ZN2cv3Mat6createEiii(ptr noundef nonnull align 8 dereferenceable(96) %0, i32 noundef %9, i32 noundef %8, i32 noundef 5)
          to label %_ZN2cv4Mat_IfE6createEii.exit unwind label %18

_ZN2cv4Mat_IfE6createEii.exit:                    ; preds = %2
  %10 = getelementptr inbounds nuw i8, ptr %0, i64 96
  invoke void @_ZN2cv3Mat6createEiii(ptr noundef nonnull align 8 dereferenceable(96) %10, i32 noundef %9, i32 noundef %8, i32 noundef 5)
          to label %_ZN2cv4Mat_IfE6createEii.exit9 unwind label %18

_ZN2cv4Mat_IfE6createEii.exit9:                   ; preds = %_ZN2cv4Mat_IfE6createEii.exit
  %11 = and i32 %.sroa.0.0.extract.trunc, 1
  %spec.select = sub nsw i32 %7, %11
  %12 = getelementptr inbounds nuw i8, ptr %0, i64 204
  store i32 %7, ptr %12, align 4, !tbaa !51
  %13 = getelementptr inbounds nuw i8, ptr %0, i64 200
  store i32 %spec.select, ptr %13, align 8, !tbaa !52
  %14 = getelementptr inbounds nuw i8, ptr %0, i64 196
  store i32 %spec.select, ptr %14, align 4, !tbaa !53
  %15 = getelementptr inbounds nuw i8, ptr %0, i64 192
  store i32 %7, ptr %15, align 8, !tbaa !54
  %16 = getelementptr inbounds nuw i8, ptr %3, i64 8
  %17 = load i32, ptr %16, align 8, !tbaa !33
  %.not.i = icmp eq i32 %17, 0
  br i1 %.not.i, label %_ZN2cv5utils5trace7details6RegionD2Ev.exit, label %20

18:                                               ; preds = %_ZN2cv4Mat_IfE6createEii.exit, %2
  %19 = landingpad { ptr, i32 }
          cleanup
  call void @_ZN2cv5utils5trace7details6RegionD2Ev(ptr noundef nonnull align 8 dereferenceable(12) %3) #18
  call void @llvm.lifetime.end.p0(i64 16, ptr nonnull %3) #18
  resume { ptr, i32 } %19

20:                                               ; preds = %_ZN2cv4Mat_IfE6createEii.exit9
  invoke void @_ZN2cv5utils5trace7details6Region7destroyEv(ptr noundef nonnull align 8 dereferenceable(12) %3)
          to label %_ZN2cv5utils5trace7details6RegionD2Ev.exit unwind label %21

21:                                               ; preds = %20
  %22 = landingpad { ptr, i32 }
          catch ptr null
  %23 = extractvalue { ptr, i32 } %22, 0
  call void @__clang_call_terminate(ptr %23) #19
  unreachable

_ZN2cv5utils5trace7details6RegionD2Ev.exit:       ; preds = %_ZN2cv4Mat_IfE6createEii.exit9, %20
  call void @llvm.lifetime.end.p0(i64 16, ptr nonnull %3) #18
  ret void
}